(dp0
Vftpget
p1
(lp2
I23
aI500
asVpkill
p3
(lp4
I14
aI0
asVtar
p5
(lp6
I17
aI0
asVvi
p7
(lp8
I25
aI0
asVsudo
p9
(lp10
I26
aI0
asVsync
p11
(lp12
I20
aI0
asVapt
p13
(lp14
I15
aI0
asVvim
p15
(lp16
I3
aI0
asVuname
p17
(lp18
I2
aI0
asVlbd
p19
(lp20
I28
aI0
asVcurl
p21
(lp22
I30
aI500
asVscp
p23
(lp24
I41
aI500
asVgcc
p25
(lp26
I31
aI0
asVnano
p27
(lp28
I7
aI0
asVtop
p29
(lp30
I18
aI0
asVnc
p31
(lp32
I32
aI500
asVping
p33
(lp34
I33
aI0
asVperl
p35
(lp36
I16
aI0
asVpython
p37
(lp38
I34
aI0
asVexit
p39
(lp40
I0
aI-500
asVkillall
p41
(lp42
I5
aI0
asVemacs
p43
(lp44
I19
aI0
asViptables
p45
(lp46
I24
aI0
asVenable
p47
(lp48
I27
aI0
asVwhich
p49
(lp50
I35
aI0
asVdf
p51
(lp52
I29
aI0
asVdd
p53
(lp54
I36
aI0
asVntop
p55
(lp56
I37
aI0
asVnetstat
p57
(lp58
I22
aI0
asVuptime
p59
(lp60
I38
aI0
asVfree
p61
(lp62
I8
aI0
asVssh
p63
(lp64
I1
aI500
asVwget
p65
(lp66
I9
aI500
asVifconfig
p67
(lp68
I6
aI0
asVdmesg
p69
(lp70
I40
aI0
asVlast
p71
(lp72
I10
aI0
asVservice
p73
(lp74
I12
aI0
asVmount
p75
(lp76
I21
aI500
asVsftp
p77
(lp78
I42
aI500
asVismtp
p79
(lp80
I4
aI0
asVw
p81
(lp82
I11
aI0
asVtftp
p83
(lp84
I13
aI500
asVmake
p85
(lp86
I43
aI0
asVnohup
p87
(lp88
I39
aI0
as.