(dp0
Vftpget
p1
(lp2
I5
aI500
asVunknown
p3
(lp4
I10
aI0
asVmount
p5
(lp6
I4
aI500
asVnc
p7
(lp8
I7
aI500
asVscp
p9
(lp10
I8
aI500
asVexit
p11
(lp12
I0
aI-500
asVssh
p13
(lp14
I1
aI500
asVwget
p15
(lp16
I2
aI500
asVtftp
p17
(lp18
I3
aI500
asVsftp
p19
(lp20
I9
aI500
asVcurl
p21
(lp22
I6
aI500
as.