(dp0
Vlastlog
p1
(lp2
I8
aI200
asVsudo
p3
(lp4
I11
aI200
asVcrontab
p5
(lp6
I16
aI200
asVecho
p7
(lp8
I2
aI200
asVuname
p9
(lp10
I3
aI200
asVsleep
p11
(lp12
I28
aI200
asVcat
p13
(lp14
I9
aI200
asVchpasswd
p15
(lp16
I32
aI200
asVps
p17
(lp18
I12
aI200
asVuptime
p19
(lp20
I4
aI200
asVunknown
p21
(lp22
I0
aI0
asVtop
p23
(lp24
I26
aI200
asVbase64
p25
(lp26
I30
aI200
asVmkdir
p27
(lp28
I1
aI200
asVls
p29
(lp30
I10
aI200
asVwhich
p31
(lp32
I25
aI200
asVrm
p33
(lp34
I21
aI200
asVhead
p35
(lp36
I22
aI200
asVwc
p37
(lp38
I18
aI200
asVpasswd
p39
(lp40
I19
aI200
asVwho
p41
(lp42
I6
aI200
asVnetstat
p43
(lp44
I13
aI200
asVfree
p45
(lp46
I24
aI200
asVawk
p47
(lp48
I23
aI200
asVchmod
p49
(lp50
I31
aI200
asVlscpu
p51
(lp52
I27
aI200
asVgrep
p53
(lp54
I17
aI200
asV/usr/sbin/ifconfig
p55
(lp56
I15
aI200
asVcd
p57
(lp58
I29
aI200
asVbash
p59
(lp60
I20
aI200
asVlast
p61
(lp62
I7
aI200
asV/usr/sbin/arp
p63
(lp64
I14
aI200
asVw
p65
(lp66
I5
aI200
as.