(dp0
Vinspy
p1
(lp2
I34
aI0
asVbusybox
p3
(lp4
I194
aI0
asVddrescue
p5
(lp6
I143
aI0
asVoscanner
p7
(lp8
I77
aI0
asVaireplay-ng
p9
(lp10
I96
aI0
asVosrframework
p11
(lp12
I45
aI0
asVkalibrate-rtl
p13
(lp14
I116
aI0
asVpacketforge-ng
p15
(lp16
I124
aI0
asVcisco-global-exploiter
p17
(lp18
I70
aI0
asVsleep
p19
(lp20
I215
aI0
asVdnmap
p21
(lp22
I14
aI0
asVmaltego
p23
(lp24
I38
aI0
asVcisco-auditing-tool
p25
(lp26
I69
aI0
asVsmbmap
p27
(lp28
I50
aI0
asVarachni
p29
(lp30
I158
aI0
asVmfterm
p31
(lp32
I122
aI0
asVuniscan
p33
(lp34
I175
aI0
asVsparta
p35
(lp36
I53
aI0
asVulimit
p37
(lp38
I230
aI0
asVhexorbase
p39
(lp40
I72
aI0
asVivstools
p41
(lp42
I115
aI0
asVextundelete
p43
(lp44
I147
aI0
asVsqlninja
p45
(lp46
I82
aI0
asVmdk3
p47
(lp48
I120
aI0
asVgrabber
p49
(lp50
I168
aI0
asVenvo
p51
(lp52
I197
aI0
asVls
p53
(lp54
I206
aI0
asVcasefile
p55
(lp56
I8
aI0
asVdnstracer
p57
(lp58
I18
aI0
asVenumiax
p59
(lp60
I22
aI0
asVexit
p61
(lp62
I246
aI-500
asVdnsenum
p63
(lp64
I15
aI0
asVethtool
p65
(lp66
I198
aI0
asVp0f
p67
(lp68
I46
aI0
asVeasside-ng
p69
(lp70
I108
aI0
asVeapmd5pass
p71
(lp72
I107
aI0
asVwifite
p73
(lp74
I135
aI0
asVgr-scan
p75
(lp76
I113
aI0
asVchntpw
p77
(lp78
I140
aI0
asVw3af
p79
(lp80
I177
aI0
asVforemost
p81
(lp82
I148
aI0
asVsmtp-user-enum
p83
(lp84
I51
aI0
asVbulk-extractor
p85
(lp86
I138
aI0
asVtnscmd10g
p87
(lp88
I84
aI0
asVssh
p89
(lp90
I216
aI500
asVlscpu
p91
(lp92
I236
aI0
asVplecost
p93
(lp94
I172
aI0
asVdotdotpwn
p95
(lp96
I20
aI0
asVvim
p97
(lp98
I243
aI0
asVbbqsql
p99
(lp100
I67
aI0
asVvolatility
p101
(lp102
I156
aI0
asVuname
p103
(lp104
I220
aI0
asVismtp
p105
(lp106
I36
aI0
asVgoofile
p107
(lp108
I31
aI0
asVgetconf
p109
(lp110
I233
aI0
asVwebsploit
p111
(lp112
I181
aI0
asVmakeivs-ng
p113
(lp114
I119
aI0
asVxsser
p115
(lp116
I184
aI0
asVsqlmap
p117
(lp118
I81
aI0
asVbluepot
p119
(lp120
I102
aI0
asVset
p121
(lp122
I49
aI0
asVaircrack-ng
p123
(lp124
I94
aI0
asVdnsrecon
p125
(lp126
I17
aI0
asVadduser
p127
(lp128
I191
aI0
asVpdgmail
p129
(lp130
I153
aI0
asVcrackle
p131
(lp132
I90
aI0
asVcutycapt
p133
(lp134
I161
aI0
asVifconfig
p135
(lp136
I203
aI0
asVwol-e
p137
(lp138
I65
aI0
asVzaproxy
p139
(lp140
I185
aI0
asVfaraday
p141
(lp142
I24
aI0
asVsslstrip
p143
(lp144
I56
aI0
asVpeepdf
p145
(lp146
I154
aI0
asVmultimon-ng
p147
(lp148
I123
aI0
asVintrace
p149
(lp150
I35
aI0
asVopenvas
p151
(lp152
I76
aI0
asVnano
p153
(lp154
I238
aI0
asVstty
p155
(lp156
I228
aI0
asVcisco-torch
p157
(lp158
I10
aI0
asVkismet
p159
(lp160
I118
aI0
asVsslsplit
p161
(lp162
I55
aI0
asVpdfid
p163
(lp164
I152
aI0
asVeyewitness
p165
(lp166
I23
aI0
asVsiparmyknife
p167
(lp168
I80
aI0
asVwpscan
p169
(lp170
I183
aI0
asVsqlsus
p171
(lp172
I83
aI0
asVwireshark
p173
(lp174
I64
aI0
asVlocate
p175
(lp176
I235
aI0
asVdistorm3
p177
(lp178
I145
aI0
asVbully
p179
(lp180
I105
aI0
asVcopy-router-config
p181
(lp182
I12
aI0
asVreaver
p183
(lp184
I127
aI0
asVace-voip
p185
(lp186
I2
aI0
asVtermineter
p187
(lp188
I190
aI0
asVwebshag
p189
(lp190
I179
aI0
asVfree
p191
(lp192
I199
aI0
asVdirbuster
p193
(lp194
I165
aI0
asVlynis
p195
(lp196
I74
aI0
asVdirb
p197
(lp198
I164
aI0
asVbase
p199
(lp200
I193
aI0
asVburp
p201
(lp202
I160
aI0
asVjboss-autopwn
p203
(lp204
I92
aI0
asVwget
p205
(lp206
I222
aI500
asVbinwalk
p207
(lp208
I137
aI0
asVblindelephant
p209
(lp210
I159
aI0
asVlast
p211
(lp212
I205
aI0
asVbeef
p213
(lp214
I88
aI0
asVcuckoo
p215
(lp216
I141
aI0
asViaxflood
p217
(lp218
I186
aI0
asVpyrit
p219
(lp220
I126
aI0
asVxplico
p221
(lp222
I66
aI0
asVhostapd-wpe
p223
(lp224
I114
aI0
asVbraa
p225
(lp226
I7
aI0
asVdnsmap
p227
(lp228
I16
aI0
asVcommix
p229
(lp230
I89
aI0
asVairserv-ng
p231
(lp232
I100
aI0
asVwifitap
p233
(lp234
I134
aI0
asVyersinia
p235
(lp236
I86
aI0
asVtheharvester
p237
(lp238
I60
aI0
asVtftp
p239
(lp240
I219
aI500
asVslowhttptest
p241
(lp242
I189
aI0
asVident-user-enum
p243
(lp244
I33
aI0
asVvipw
p245
(lp246
I244
aI0
asVpkill
p247
(lp248
I240
aI0
asVpico
p249
(lp250
I239
aI0
asVnmap
p251
(lp252
I43
aI0
asVsslcaudit
p253
(lp254
I54
aI0
asVipv6-toolkit
p255
(lp256
I188
aI0
asVapt
p257
(lp258
I192
aI0
asVfern
p259
(lp260
I109
aI0
asVarmitage
p261
(lp262
I87
aI0
asVpixiewps
p263
(lp264
I125
aI0
asVblueranger
p265
(lp266
I103
aI0
asVcisco-ocs
p267
(lp268
I71
aI0
asVgqrx
p269
(lp270
I112
aI0
asVservice
p271
(lp272
I214
aI0
asVguymager
p273
(lp274
I150
aI0
asVtwofi
p275
(lp276
I62
aI0
asVunknown
p277
(lp278
I247
aI0
asVtop
p279
(lp280
I241
aI0
asVua-tester
p281
(lp282
I174
aI0
asVperl
p283
(lp284
I210
aI0
asVemacs
p285
(lp286
I232
aI0
asVwhich
p287
(lp288
I223
aI0
asVpdf-parser
p289
(lp290
I151
aI0
asVspooftooph
p291
(lp292
I130
aI0
asVdff
p293
(lp294
I144
aI0
asVwebscarab
p295
(lp296
I178
aI0
asVautomater
p297
(lp298
I5
aI0
asVmfoc
p299
(lp300
I121
aI0
asVpython
p301
(lp302
I212
aI0
asVarp-scan
p303
(lp304
I4
aI0
asVohrwurm
p305
(lp306
I75
aI0
asVinviteflood
p307
(lp308
I187
aI0
asVsync
p309
(lp310
I229
aI0
asVsnmp-check
p311
(lp312
I52
aI0
asVgalleta
p313
(lp314
I149
aI0
asVhurl
p315
(lp316
I169
aI0
asVcdpsnarf
p317
(lp318
I9
aI0
asVdc3dd
p319
(lp320
I142
aI0
asVghost-phisher
p321
(lp322
I29
aI0
asVcookie-cadger
p323
(lp324
I11
aI0
asVproxystrike
p325
(lp326
I173
aI0
asVsublist3r
p327
(lp328
I58
aI0
asVmount
p329
(lp330
I227
aI500
asVthc-ipv6
p331
(lp332
I59
aI0
asVbed
p333
(lp334
I68
aI0
asVnetstat
p335
(lp336
I208
aI0
asVvega
p337
(lp338
I176
aI0
asVfragrouter
p339
(lp340
I28
aI0
asVsidguesser
p341
(lp342
I79
aI0
asVexploitdb
p343
(lp344
I91
aI0
asVdmitry
p345
(lp346
I13
aI0
asVpadbuster
p347
(lp348
I171
aI0
asVftpget
p349
(lp350
I201
aI500
asViptables
p351
(lp352
I204
aI0
asVfunkload
p353
(lp354
I166
aI0
asVfirewalk
p355
(lp356
I26
aI0
asVhping3
p357
(lp358
I32
aI0
asVtar
p359
(lp360
I218
aI0
asVmasscan
p361
(lp362
I39
aI0
asVvi
p363
(lp364
I242
aI0
asVsudo
p365
(lp366
I217
aI0
asVparsero
p367
(lp368
I47
aI0
asVdeblaze
p369
(lp370
I163
aI0
asVfragroute
p371
(lp372
I27
aI0
asVenable
p373
(lp374
I226
aI0
asVwesside-ng
p375
(lp376
I132
aI0
asVlbd
p377
(lp378
I37
aI0
asVairdecap-ng
p379
(lp380
I95
aI0
asVdnswalk
p381
(lp382
I19
aI0
asVsfuzz
p383
(lp384
I78
aI0
asVcurl
p385
(lp386
I195
aI500
asVrtlsdr
p387
(lp388
I129
aI0
asVairolib-ng
p389
(lp390
I99
aI0
asVasleap
p391
(lp392
I101
aI0
asVgcc
p393
(lp394
I202
aI0
asVenum4linux
p395
(lp396
I21
aI0
asVjoomscan
p397
(lp398
I170
aI0
asVairmon-ng
p399
(lp400
I97
aI0
asVregripper
p401
(lp402
I155
aI0
asVinguma
p403
(lp404
I73
aI0
asVtlssled
p405
(lp406
I61
aI0
asVnc
p407
(lp408
I207
aI500
asVping
p409
(lp410
I211
aI0
asVcowpatty
p411
(lp412
I106
aI0
asVnbtscan-unixwiz
p413
(lp414
I42
aI0
asVgolismero
p415
(lp416
I30
aI0
asVdf
p417
(lp418
I224
aI0
asVmetagoofil
p419
(lp420
I40
aI0
asVwpaclean
p421
(lp422
I136
aI0
asVkillall
p423
(lp424
I234
aI0
asVcapstone
p425
(lp426
I139
aI0
asVdd
p427
(lp428
I196
aI0
asVdumpzilla
p429
(lp430
I146
aI0
asVacccheck
p431
(lp432
I1
aI0
asVfs
p433
(lp434
I200
aI0
asVwfuzz
p435
(lp436
I182
aI0
asVbing-ip2hosts
p437
(lp438
I6
aI0
asVntop
p439
(lp440
I44
aI0
asVuptime
p441
(lp442
I221
aI0
asVnohup
p443
(lp444
I209
aI0
asVkillerbee
p445
(lp446
I117
aI0
asVamap
p447
(lp448
I3
aI0
asVunix-privesc-check
p449
(lp450
I85
aI0
asVmiranda
p451
(lp452
I41
aI0
asVfierce
p453
(lp454
I25
aI0
asVwebslayer
p455
(lp456
I180
aI0
asVdavtest
p457
(lp458
I162
aI0
asVapache-users
p459
(lp460
I157
aI0
asVrecon-ng
p461
(lp462
I48
aI0
asVmetasploit
p463
(lp464
I93
aI0
asVdmesg
p465
(lp466
I225
aI0
asVsslyze
p467
(lp468
I57
aI0
asVwifiphisher
p469
(lp470
I133
aI0
asVredfang
p471
(lp472
I128
aI0
asVgiskismet
p473
(lp474
I111
aI0
asVclear
p475
(lp476
I231
aI0
asVscp
p477
(lp478
I213
aI500
asVbluesnarfer
p479
(lp480
I104
aI0
asVsftp
p481
(lp482
I245
aI500
asVgobuster
p483
(lp484
I167
aI0
asVurlcrazy
p485
(lp486
I63
aI0
asVtkiptun-ng
p487
(lp488
I131
aI0
asVairodump-ng-oui-update
p489
(lp490
I98
aI0
asVmake
p491
(lp492
I237
aI0
asVfreeradius-wpe
p493
(lp494
I110
aI0
as.