(dp0
Vftpget
p1
(lp2
I23
aI500
asVpkill
p3
(lp4
I14
aI0
asVtar
p5
(lp6
I17
aI0
asVvi
p7
(lp8
I25
aI0
asVsudo
p9
(lp10
I26
aI0
asVsync
p11
(lp12
I20
aI0
asVapt
p13
(lp14
I15
aI0
asVvim
p15
(lp16
I3
aI0
asVuname
p17
(lp18
I2
aI0
asVlbd
p19
(lp20
I28
aI0
asVcurl
p21
(lp22
I30
aI500
asVscp
p23
(lp24
I41
aI500
asVgcc
p25
(lp26
I31
aI0
asVnano
p27
(lp28
I7
aI0
asVunknown
p29
(lp30
I44
aI0
asVtop
p31
(lp32
I18
aI0
asVnc
p33
(lp34
I32
aI500
asVping
p35
(lp36
I33
aI0
asVperl
p37
(lp38
I16
aI0
asVpython
p39
(lp40
I34
aI0
asVexit
p41
(lp42
I0
aI-500
asVkillall
p43
(lp44
I5
aI0
asVemacs
p45
(lp46
I19
aI0
asViptables
p47
(lp48
I24
aI0
asVenable
p49
(lp50
I27
aI0
asVwhich
p51
(lp52
I35
aI0
asVdf
p53
(lp54
I29
aI0
asVdd
p55
(lp56
I36
aI0
asVntop
p57
(lp58
I37
aI0
asVnetstat
p59
(lp60
I22
aI0
asVuptime
p61
(lp62
I38
aI0
asVfree
p63
(lp64
I8
aI0
asVssh
p65
(lp66
I1
aI500
asVwget
p67
(lp68
I9
aI500
asVifconfig
p69
(lp70
I6
aI0
asVdmesg
p71
(lp72
I40
aI0
asVlast
p73
(lp74
I10
aI0
asVservice
p75
(lp76
I12
aI0
asVmount
p77
(lp78
I21
aI500
asVsftp
p79
(lp80
I42
aI500
asVismtp
p81
(lp82
I4
aI0
asVw
p83
(lp84
I11
aI0
asVtftp
p85
(lp86
I13
aI500
asVmake
p87
(lp88
I43
aI0
asVnohup
p89
(lp90
I39
aI0
as.