(dp0
Vinspy
p1
(lp2
I0
aI200
asVbusybox
p3
(lp4
I1
aI0
asVddrescue
p5
(lp6
I2
aI200
asVoscanner
p7
(lp8
I4
aI200
asVaireplay-ng
p9
(lp10
I5
aI200
asVosrframework
p11
(lp12
I6
aI200
asVkalibrate-rtl
p13
(lp14
I7
aI200
asVpacketforge-ng
p15
(lp16
I8
aI200
asVcisco-global-exploiter
p17
(lp18
I9
aI200
asVsleep
p19
(lp20
I10
aI0
asVdnmap
p21
(lp22
I11
aI200
asVmaltego
p23
(lp24
I12
aI200
asVcisco-auditing-tool
p25
(lp26
I13
aI200
asVsmbmap
p27
(lp28
I14
aI200
asVarachni
p29
(lp30
I15
aI200
asVmfterm
p31
(lp32
I16
aI200
asVuniscan
p33
(lp34
I17
aI200
asVsparta
p35
(lp36
I18
aI200
asVulimit
p37
(lp38
I19
aI-200
asVhexorbase
p39
(lp40
I20
aI200
asVivstools
p41
(lp42
I21
aI200
asVextundelete
p43
(lp44
I22
aI200
asVsqlninja
p45
(lp46
I23
aI200
asVmdk3
p47
(lp48
I24
aI200
asVgrabber
p49
(lp50
I25
aI200
asVenvo
p51
(lp52
I26
aI0
asVls
p53
(lp54
I27
aI0
asVcasefile
p55
(lp56
I28
aI200
asVdnstracer
p57
(lp58
I29
aI200
asVenumiax
p59
(lp60
I30
aI200
asVexit
p61
(lp62
I31
aI-500
asVdnsenum
p63
(lp64
I210
aI200
asVethtool
p65
(lp66
I33
aI0
asVp0f
p67
(lp68
I34
aI200
asVeasside-ng
p69
(lp70
I35
aI200
asVeapmd5pass
p71
(lp72
I36
aI200
asVwifite
p73
(lp74
I37
aI200
asVgr-scan
p75
(lp76
I38
aI200
asVchntpw
p77
(lp78
I39
aI200
asVw3af
p79
(lp80
I40
aI200
asVforemost
p81
(lp82
I41
aI200
asVsmtp-user-enum
p83
(lp84
I42
aI200
asVbulk-extractor
p85
(lp86
I43
aI200
asVtnscmd10g
p87
(lp88
I44
aI200
asVssh
p89
(lp90
I45
aI500
asVlscpu
p91
(lp92
I3
aI-200
asVplecost
p93
(lp94
I87
aI200
asVdotdotpwn
p95
(lp96
I160
aI200
asVvim
p97
(lp98
I53
aI-200
asVbbqsql
p99
(lp100
I49
aI200
asVvolatility
p101
(lp102
I50
aI200
asVuname
p103
(lp104
I52
aI0
asVismtp
p105
(lp106
I54
aI200
asVgoofile
p107
(lp108
I55
aI200
asVgetconf
p109
(lp110
I56
aI-200
asVwebsploit
p111
(lp112
I57
aI200
asVmakeivs-ng
p113
(lp114
I58
aI200
asVxsser
p115
(lp116
I59
aI200
asVsqlmap
p117
(lp118
I90
aI200
asVbluepot
p119
(lp120
I61
aI200
asVset
p121
(lp122
I62
aI200
asVaircrack-ng
p123
(lp124
I63
aI200
asVdnsrecon
p125
(lp126
I64
aI200
asVadduser
p127
(lp128
I65
aI0
asVpdgmail
p129
(lp130
I66
aI200
asVcrackle
p131
(lp132
I68
aI200
asVcutycapt
p133
(lp134
I69
aI200
asVifconfig
p135
(lp136
I70
aI0
asVwol-e
p137
(lp138
I71
aI200
asVzaproxy
p139
(lp140
I72
aI200
asVfaraday
p141
(lp142
I132
aI200
asVsslstrip
p143
(lp144
I74
aI200
asVpeepdf
p145
(lp146
I75
aI200
asVmultimon-ng
p147
(lp148
I76
aI200
asVintrace
p149
(lp150
I77
aI200
asVopenvas
p151
(lp152
I78
aI200
asVnano
p153
(lp154
I79
aI-200
asVstty
p155
(lp156
I167
aI-200
asVcisco-torch
p157
(lp158
I81
aI200
asVkismet
p159
(lp160
I82
aI200
asVsslsplit
p161
(lp162
I83
aI200
asVpdfid
p163
(lp164
I84
aI200
asVeyewitness
p165
(lp166
I135
aI200
asVsiparmyknife
p167
(lp168
I86
aI200
asVwpscan
p169
(lp170
I51
aI200
asVsqlsus
p171
(lp172
I88
aI200
asVwireshark
p173
(lp174
I89
aI200
asVlocate
p175
(lp176
I60
aI-200
asVdistorm3
p177
(lp178
I95
aI200
asVbully
p179
(lp180
I92
aI200
asVcopy-router-config
p181
(lp182
I93
aI200
asVreaver
p183
(lp184
I94
aI200
asVace-voip
p185
(lp186
I176
aI200
asVtermineter
p187
(lp188
I91
aI200
asVwebshag
p189
(lp190
I96
aI200
asVfree
p191
(lp192
I97
aI0
asVdirbuster
p193
(lp194
I98
aI200
asVlynis
p195
(lp196
I99
aI200
asVdirb
p197
(lp198
I100
aI200
asVbase
p199
(lp200
I46
aI0
asVburp
p201
(lp202
I102
aI200
asVjboss-autopwn
p203
(lp204
I103
aI200
asVwget
p205
(lp206
I104
aI500
asVbinwalk
p207
(lp208
I105
aI200
asVblindelephant
p209
(lp210
I228
aI200
asVlast
p211
(lp212
I106
aI0
asVbeef
p213
(lp214
I137
aI200
asVcuckoo
p215
(lp216
I108
aI200
asViaxflood
p217
(lp218
I109
aI200
asVpyrit
p219
(lp220
I110
aI200
asVxplico
p221
(lp222
I111
aI200
asVhostapd-wpe
p223
(lp224
I112
aI200
asVbraa
p225
(lp226
I113
aI200
asVdnsmap
p227
(lp228
I101
aI200
asVcommix
p229
(lp230
I115
aI200
asVairserv-ng
p231
(lp232
I116
aI200
asVwifitap
p233
(lp234
I140
aI200
asVyersinia
p235
(lp236
I118
aI200
asVtheharvester
p237
(lp238
I119
aI200
asVtftp
p239
(lp240
I120
aI500
asVslowhttptest
p241
(lp242
I121
aI200
asVident-user-enum
p243
(lp244
I122
aI200
asVvipw
p245
(lp246
I123
aI-200
asVpkill
p247
(lp248
I124
aI-200
asVpico
p249
(lp250
I209
aI-200
asVnmap
p251
(lp252
I125
aI200
asVsslcaudit
p253
(lp254
I126
aI200
asVipv6-toolkit
p255
(lp256
I127
aI200
asVapt
p257
(lp258
I128
aI0
asVfern
p259
(lp260
I48
aI200
asVarmitage
p261
(lp262
I130
aI200
asVpixiewps
p263
(lp264
I131
aI200
asVblueranger
p265
(lp266
I73
aI200
asVcisco-ocs
p267
(lp268
I85
aI200
asVgqrx
p269
(lp270
I178
aI200
asVservice
p271
(lp272
I107
aI0
asVguymager
p273
(lp274
I138
aI200
asVtwofi
p275
(lp276
I139
aI200
asVunknown
p277
(lp278
I117
aI0
asVtop
p279
(lp280
I141
aI-200
asVua-tester
p281
(lp282
I142
aI200
asVperl
p283
(lp284
I133
aI0
asVemacs
p285
(lp286
I144
aI-200
asVwhich
p287
(lp288
I211
aI0
asVpdf-parser
p289
(lp290
I145
aI200
asVspooftooph
p291
(lp292
I146
aI200
asVdff
p293
(lp294
I147
aI200
asVwebscarab
p295
(lp296
I143
aI200
asVautomater
p297
(lp298
I149
aI200
asVmfoc
p299
(lp300
I150
aI200
asVpython
p301
(lp302
I208
aI0
asVarp-scan
p303
(lp304
I151
aI200
asVohrwurm
p305
(lp306
I152
aI200
asVinviteflood
p307
(lp308
I153
aI200
asVsync
p309
(lp310
I154
aI-200
asVsnmp-check
p311
(lp312
I155
aI200
asVgalleta
p313
(lp314
I156
aI200
asVhurl
p315
(lp316
I157
aI200
asVcdpsnarf
p317
(lp318
I158
aI200
asVdc3dd
p319
(lp320
I159
aI200
asVghost-phisher
p321
(lp322
I239
aI200
asVcookie-cadger
p323
(lp324
I47
aI200
asVproxystrike
p325
(lp326
I161
aI200
asVsublist3r
p327
(lp328
I148
aI200
asVmount
p329
(lp330
I162
aI500
asVthc-ipv6
p331
(lp332
I163
aI200
asVbed
p333
(lp334
I164
aI200
asVnetstat
p335
(lp336
I165
aI0
asVvega
p337
(lp338
I166
aI200
asVfragrouter
p339
(lp340
I236
aI200
asVsidguesser
p341
(lp342
I186
aI200
asVexploitdb
p343
(lp344
I170
aI200
asVdmitry
p345
(lp346
I171
aI200
asVpadbuster
p347
(lp348
I172
aI200
asVftpget
p349
(lp350
I173
aI500
asViptables
p351
(lp352
I174
aI0
asVfunkload
p353
(lp354
I175
aI200
asVfirewalk
p355
(lp356
I129
aI200
asVhping3
p357
(lp358
I177
aI200
asVtar
p359
(lp360
I136
aI0
asVmasscan
p361
(lp362
I179
aI200
asVvi
p363
(lp364
I180
aI-200
asVsudo
p365
(lp366
I181
aI0
asVparsero
p367
(lp368
I182
aI200
asVdeblaze
p369
(lp370
I183
aI200
asVfragroute
p371
(lp372
I184
aI200
asVenable
p373
(lp374
I185
aI-200
asVwesside-ng
p375
(lp376
I169
aI200
asVlbd
p377
(lp378
I187
aI200
asVairdecap-ng
p379
(lp380
I188
aI200
asVdnswalk
p381
(lp382
I191
aI200
asVsfuzz
p383
(lp384
I189
aI200
asVcurl
p385
(lp386
I192
aI500
asVrtlsdr
p387
(lp388
I193
aI200
asVairolib-ng
p389
(lp390
I194
aI200
asVasleap
p391
(lp392
I195
aI200
asVgcc
p393
(lp394
I196
aI0
asVenum4linux
p395
(lp396
I197
aI200
asVjoomscan
p397
(lp398
I198
aI200
asVairmon-ng
p399
(lp400
I199
aI200
asVregripper
p401
(lp402
I200
aI200
asVinguma
p403
(lp404
I201
aI200
asVtlssled
p405
(lp406
I202
aI200
asVnc
p407
(lp408
I203
aI500
asVping
p409
(lp410
I204
aI0
asVcowpatty
p411
(lp412
I205
aI200
asVnbtscan-unixwiz
p413
(lp414
I206
aI200
asVgolismero
p415
(lp416
I207
aI200
asVdf
p417
(lp418
I190
aI-200
asVmetagoofil
p419
(lp420
I114
aI200
asVwpaclean
p421
(lp422
I32
aI200
asVkillall
p423
(lp424
I67
aI-200
asVcapstone
p425
(lp426
I212
aI200
asVdd
p427
(lp428
I213
aI0
asVdumpzilla
p429
(lp430
I214
aI200
asVacccheck
p431
(lp432
I215
aI200
asVfs
p433
(lp434
I216
aI0
asVwfuzz
p435
(lp436
I217
aI200
asVbing-ip2hosts
p437
(lp438
I218
aI200
asVntop
p439
(lp440
I219
aI200
asVuptime
p441
(lp442
I220
aI0
asVnohup
p443
(lp444
I221
aI0
asVkillerbee
p445
(lp446
I222
aI200
asVamap
p447
(lp448
I223
aI200
asVunix-privesc-check
p449
(lp450
I224
aI200
asVmiranda
p451
(lp452
I225
aI200
asVfierce
p453
(lp454
I226
aI200
asVwebslayer
p455
(lp456
I227
aI200
asVdavtest
p457
(lp458
I134
aI200
asVapache-users
p459
(lp460
I229
aI200
asVrecon-ng
p461
(lp462
I230
aI200
asVmetasploit
p463
(lp464
I231
aI200
asVdmesg
p465
(lp466
I232
aI-200
asVsslyze
p467
(lp468
I233
aI200
asVwifiphisher
p469
(lp470
I234
aI200
asVredfang
p471
(lp472
I235
aI200
asVgiskismet
p473
(lp474
I168
aI200
asVclear
p475
(lp476
I237
aI-200
asVscp
p477
(lp478
I238
aI500
asVbluesnarfer
p479
(lp480
I80
aI200
asVsftp
p481
(lp482
I240
aI500
asVgobuster
p483
(lp484
I241
aI200
asVurlcrazy
p485
(lp486
I242
aI200
asVtkiptun-ng
p487
(lp488
I243
aI200
asVairodump-ng-oui-update
p489
(lp490
I244
aI200
asVmake
p491
(lp492
I245
aI-200
asVfreeradius-wpe
p493
(lp494
I246
aI200
as.