(dp0
Vhead
p1
(lp2
I14
aI500
asVgrep
p3
(lp4
I4
aI500
asVunknown
p5
(lp6
I16
aI0
asVchmod
p7
(lp8
I8
aI500
asVcat
p9
(lp10
I2
aI500
asVcd
p11
(lp12
I6
aI500
asVuname
p13
(lp14
I13
aI500
asVsh
p15
(lp16
I10
aI500
asVexit
p17
(lp18
I0
aI-500
asVls
p19
(lp20
I11
aI500
asVwget
p21
(lp22
I7
aI500
asVrm
p23
(lp24
I3
aI500
asVtftp
p25
(lp26
I12
aI500
asVecho
p27
(lp28
I1
aI500
asVawk
p29
(lp30
I15
aI500
asV/bin/busybox
p31
(lp32
I9
aI500
asVbash
p33
(lp34
I5
aI500
as.