(dp0
Vftpget
p1
(lp2
I22
aI500
asVpkill
p3
(lp4
I14
aI0
asVtar
p5
(lp6
I16
aI0
asVvi
p7
(lp8
I24
aI0
asVsudo
p9
(lp10
I25
aI0
asVsync
p11
(lp12
I19
aI0
asVapt
p13
(lp14
I15
aI0
asVvim
p15
(lp16
I4
aI0
asVuname
p17
(lp18
I3
aI0
asVlbd
p19
(lp20
I27
aI0
asVcurl
p21
(lp22
I29
aI500
asVscp
p23
(lp24
I40
aI500
asVgcc
p25
(lp26
I30
aI0
asVservice
p27
(lp28
I12
aI0
asVtop
p29
(lp30
I17
aI0
asVnc
p31
(lp32
I31
aI500
asVping
p33
(lp34
I32
aI0
asVperl
p35
(lp36
I16
aI0
asVpython
p37
(lp38
I33
aI0
asVexit
p39
(lp40
I1
aI-500
asVkillall
p41
(lp42
I6
aI0
asVemacs
p43
(lp44
I18
aI0
asViptables
p45
(lp46
I23
aI0
asVenable
p47
(lp48
I26
aI0
asVwhich
p49
(lp50
I34
aI0
asVdf
p51
(lp52
I28
aI0
asVdd
p53
(lp54
I35
aI0
asVntop
p55
(lp56
I36
aI0
asVnetstat
p57
(lp58
I21
aI0
asVuptime
p59
(lp60
I37
aI0
asVfree
p61
(lp62
I9
aI0
asVssh
p63
(lp64
I2
aI500
asVwget
p65
(lp66
I10
aI500
asVifconfig
p67
(lp68
I7
aI0
asVdmesg
p69
(lp70
I39
aI0
asVlast
p71
(lp72
I11
aI0
asVnano
p73
(lp74
I8
aI0
asVmount
p75
(lp76
I20
aI500
asVsftp
p77
(lp78
I41
aI500
asVismtp
p79
(lp80
I5
aI0
asVtftp
p81
(lp82
I13
aI500
asVmake
p83
(lp84
I42
aI0
asVnohup
p85
(lp86
I38
aI0
as.